target datalayout = "e-m:e-p270:32:32-p271:32:32-p272:64:64-i64:64-i128:128-f80:128-n8:16:32:64-S128"
target triple = "x86_64-pc-linux-gnu"

%struct.TM2Context = type { ptr, ptr, %struct.GetBitContext, i32, %struct.BswapDSPContext, ptr, i32, [7 x ptr], [7 x i32], [7 x i32], [7 x [64 x i32]], [4 x i32], [4 x i32], ptr, ptr, ptr, ptr, ptr, ptr, ptr, ptr, ptr, ptr, i32, i32, i32 }
%struct.GetBitContext = type { ptr, ptr, i32, i32, i32 }
%struct.BswapDSPContext = type { ptr, ptr }

@.str.14 = private unnamed_addr constant [44 x i8] c"Incorrect delta table: %i deltas x %i bits\0A\00", align 1

; Function Attrs: alwaysinline nounwind willreturn memory(none) uwtable
define internal i32 @av_bswap32(i32 noundef %0) #8 {
  %2 = alloca i32, align 4
  store i32 %0, ptr %2, align 4, !tbaa !32
  %3 = load i32, ptr %2, align 4, !tbaa !32
  %4 = shl i32 %3, 8
  %5 = and i32 %4, 65280
  %6 = load i32, ptr %2, align 4, !tbaa !32
  %7 = lshr i32 %6, 8
  %8 = and i32 %7, 255
  %9 = or i32 %5, %8
  %10 = shl i32 %9, 16
  %11 = load i32, ptr %2, align 4, !tbaa !32
  %12 = lshr i32 %11, 16
  %13 = shl i32 %12, 8
  %14 = and i32 %13, 65280
  %15 = load i32, ptr %2, align 4, !tbaa !32
  %16 = lshr i32 %15, 16
  %17 = lshr i32 %16, 8
  %18 = and i32 %17, 255
  %19 = or i32 %14, %18
  %20 = or i32 %10, %19
  ret i32 %20
}

; Function Attrs: inlinehint nounwind uwtable
define internal i32 @get_bits_long(ptr noundef %0, i32 noundef %1) #4 {
  %3 = alloca i32, align 4
  %4 = alloca ptr, align 8
  %5 = alloca i32, align 4
  %6 = alloca i32, align 4
  store ptr %0, ptr %4, align 8, !tbaa !93
  store i32 %1, ptr %5, align 4, !tbaa !32
  %7 = load i32, ptr %5, align 4, !tbaa !32
  %8 = icmp ne i32 %7, 0
  br i1 %8, label %10, label %9

9:                                                ; preds = %2
  store i32 0, ptr %3, align 4
  br label %29

10:                                               ; preds = %2
  %11 = load i32, ptr %5, align 4, !tbaa !32
  %12 = icmp sle i32 %11, 25
  br i1 %12, label %13, label %17

13:                                               ; preds = %10
  %14 = load ptr, ptr %4, align 8, !tbaa !93
  %15 = load i32, ptr %5, align 4, !tbaa !32
  %16 = call i32 @get_bits(ptr noundef %14, i32 noundef %15)
  store i32 %16, ptr %3, align 4
  br label %29

17:                                               ; preds = %10
  call void @llvm.lifetime.start.p0(i64 4, ptr %6) #10
  %18 = load ptr, ptr %4, align 8, !tbaa !93
  %19 = call i32 @get_bits(ptr noundef %18, i32 noundef 16)
  %20 = load i32, ptr %5, align 4, !tbaa !32
  %21 = sub nsw i32 %20, 16
  %22 = shl i32 %19, %21
  store i32 %22, ptr %6, align 4, !tbaa !32
  %23 = load i32, ptr %6, align 4, !tbaa !32
  %24 = load ptr, ptr %4, align 8, !tbaa !93
  %25 = load i32, ptr %5, align 4, !tbaa !32
  %26 = sub nsw i32 %25, 16
  %27 = call i32 @get_bits(ptr noundef %24, i32 noundef %26)
  %28 = or i32 %23, %27
  store i32 %28, ptr %3, align 4
  call void @llvm.lifetime.end.p0(i64 4, ptr %6) #10
  br label %29

29:                                               ; preds = %17, %13, %9
  %30 = load i32, ptr %3, align 4
  ret i32 %30
}

; Function Attrs: inlinehint nounwind uwtable
define internal i32 @get_bits(ptr noundef %0, i32 noundef %1) #4 {
  %3 = alloca ptr, align 8
  %4 = alloca i32, align 4
  %5 = alloca i32, align 4
  %6 = alloca i32, align 4
  %7 = alloca i32, align 4
  %8 = alloca i32, align 4
  store ptr %0, ptr %3, align 8, !tbaa !93
  store i32 %1, ptr %4, align 4, !tbaa !32
  call void @llvm.lifetime.start.p0(i64 4, ptr %5) #10
  call void @llvm.lifetime.start.p0(i64 4, ptr %6) #10
  %9 = load ptr, ptr %3, align 8, !tbaa !93
  %10 = getelementptr inbounds nuw %struct.GetBitContext, ptr %9, i32 0, i32 2
  %11 = load i32, ptr %10, align 8, !tbaa !99
  store i32 %11, ptr %6, align 4, !tbaa !32
  call void @llvm.lifetime.start.p0(i64 4, ptr %7) #10
  call void @llvm.lifetime.start.p0(i64 4, ptr %8) #10
  %12 = load ptr, ptr %3, align 8, !tbaa !93
  %13 = getelementptr inbounds nuw %struct.GetBitContext, ptr %12, i32 0, i32 4
  %14 = load i32, ptr %13, align 8, !tbaa !97
  store i32 %14, ptr %8, align 4, !tbaa !32
  %15 = load ptr, ptr %3, align 8, !tbaa !93
  %16 = getelementptr inbounds nuw %struct.GetBitContext, ptr %15, i32 0, i32 0
  %17 = load ptr, ptr %16, align 8, !tbaa !95
  %18 = load i32, ptr %6, align 4, !tbaa !32
  %19 = lshr i32 %18, 3
  %20 = zext i32 %19 to i64
  %21 = getelementptr inbounds nuw i8, ptr %17, i64 %20
  %22 = load i32, ptr %21, align 1, !tbaa !75
  %23 = call i32 @av_bswap32(i32 noundef %22) #11
  %24 = load i32, ptr %6, align 4, !tbaa !32
  %25 = and i32 %24, 7
  %26 = shl i32 %23, %25
  %27 = lshr i32 %26, 0
  store i32 %27, ptr %7, align 4, !tbaa !32
  %28 = load i32, ptr %7, align 4, !tbaa !32
  %29 = load i32, ptr %4, align 4, !tbaa !32
  %30 = sub nsw i32 32, %29
  %31 = lshr i32 %28, %30
  store i32 %31, ptr %5, align 4, !tbaa !32
  %32 = load i32, ptr %8, align 4, !tbaa !32
  %33 = load i32, ptr %6, align 4, !tbaa !32
  %34 = load i32, ptr %4, align 4, !tbaa !32
  %35 = add i32 %33, %34
  %36 = icmp ugt i32 %32, %35
  br i1 %36, label %37, label %41

37:                                               ; preds = %2
  %38 = load i32, ptr %6, align 4, !tbaa !32
  %39 = load i32, ptr %4, align 4, !tbaa !32
  %40 = add i32 %38, %39
  br label %43

41:                                               ; preds = %2
  %42 = load i32, ptr %8, align 4, !tbaa !32
  br label %43

43:                                               ; preds = %41, %37
  %44 = phi i32 [ %40, %37 ], [ %42, %41 ]
  store i32 %44, ptr %6, align 4, !tbaa !32
  %45 = load i32, ptr %6, align 4, !tbaa !32
  %46 = load ptr, ptr %3, align 8, !tbaa !93
  %47 = getelementptr inbounds nuw %struct.GetBitContext, ptr %46, i32 0, i32 2
  store i32 %45, ptr %47, align 8, !tbaa !99
  %48 = load i32, ptr %5, align 4, !tbaa !32
  call void @llvm.lifetime.end.p0(i64 4, ptr %8) #10
  call void @llvm.lifetime.end.p0(i64 4, ptr %7) #10
  call void @llvm.lifetime.end.p0(i64 4, ptr %6) #10
  call void @llvm.lifetime.end.p0(i64 4, ptr %5) #10
  ret i32 %48
}

; Function Attrs: nounwind uwtable
define internal i32 @tm2_read_deltas(ptr noundef %0, i32 noundef %1) #1 {
  %3 = alloca i32, align 4
  %4 = alloca ptr, align 8
  %5 = alloca i32, align 4
  %6 = alloca i32, align 4
  %7 = alloca i32, align 4
  %8 = alloca i32, align 4
  %9 = alloca i32, align 4
  %10 = alloca i32, align 4
  store ptr %0, ptr %4, align 8, !tbaa !29
  store i32 %1, ptr %5, align 4, !tbaa !32
  call void @llvm.lifetime.start.p0(i64 4, ptr %6) #10
  call void @llvm.lifetime.start.p0(i64 4, ptr %7) #10
  call void @llvm.lifetime.start.p0(i64 4, ptr %8) #10
  call void @llvm.lifetime.start.p0(i64 4, ptr %9) #10
  %11 = load ptr, ptr %4, align 8, !tbaa !29
  %12 = getelementptr inbounds nuw %struct.TM2Context, ptr %11, i32 0, i32 2
  %13 = call i32 @get_bits(ptr noundef %12, i32 noundef 9)
  store i32 %13, ptr %6, align 4, !tbaa !32
  %14 = load ptr, ptr %4, align 8, !tbaa !29
  %15 = getelementptr inbounds nuw %struct.TM2Context, ptr %14, i32 0, i32 2
  %16 = call i32 @get_bits(ptr noundef %15, i32 noundef 5)
  store i32 %16, ptr %7, align 4, !tbaa !32
  %17 = load i32, ptr %6, align 4, !tbaa !32
  %18 = icmp slt i32 %17, 1
  br i1 %18, label %25, label %19

19:                                               ; preds = %2
  %20 = load i32, ptr %6, align 4, !tbaa !32
  %21 = icmp sgt i32 %20, 64
  br i1 %21, label %25, label %22

22:                                               ; preds = %19
  %23 = load i32, ptr %7, align 4, !tbaa !32
  %24 = icmp slt i32 %23, 1
  br i1 %24, label %25, label %31

25:                                               ; preds = %22, %19, %2
  %26 = load ptr, ptr %4, align 8, !tbaa !29
  %27 = getelementptr inbounds nuw %struct.TM2Context, ptr %26, i32 0, i32 0
  %28 = load ptr, ptr %27, align 8, !tbaa !34
  %29 = load i32, ptr %6, align 4, !tbaa !32
  %30 = load i32, ptr %7, align 4, !tbaa !32
  call void (ptr, i32, ptr, ...) @av_log(ptr noundef %28, i32 noundef 16, ptr noundef @.str.14, i32 noundef %29, i32 noundef %30)
  store i32 -1094995529, ptr %3, align 4
  store i32 1, ptr %10, align 4
  br label %91

31:                                               ; preds = %22
  store i32 0, ptr %8, align 4, !tbaa !32
  br label %32

32:                                               ; preds = %71, %31
  %33 = load i32, ptr %8, align 4, !tbaa !32
  %34 = load i32, ptr %6, align 4, !tbaa !32
  %35 = icmp slt i32 %33, %34
  br i1 %35, label %36, label %74

36:                                               ; preds = %32
  %37 = load ptr, ptr %4, align 8, !tbaa !29
  %38 = getelementptr inbounds nuw %struct.TM2Context, ptr %37, i32 0, i32 2
  %39 = load i32, ptr %7, align 4, !tbaa !32
  %40 = call i32 @get_bits_long(ptr noundef %38, i32 noundef %39)
  store i32 %40, ptr %9, align 4, !tbaa !32
  %41 = load i32, ptr %9, align 4, !tbaa !32
  %42 = load i32, ptr %7, align 4, !tbaa !32
  %43 = sub nsw i32 %42, 1
  %44 = shl i32 1, %43
  %45 = and i32 %41, %44
  %46 = icmp ne i32 %45, 0
  br i1 %46, label %47, label %60

47:                                               ; preds = %36
  %48 = load i32, ptr %9, align 4, !tbaa !32
  %49 = load i32, ptr %7, align 4, !tbaa !32
  %50 = shl i32 1, %49
  %51 = sub i32 %48, %50
  %52 = load ptr, ptr %4, align 8, !tbaa !29
  %53 = getelementptr inbounds nuw %struct.TM2Context, ptr %52, i32 0, i32 10
  %54 = load i32, ptr %5, align 4, !tbaa !32
  %55 = sext i32 %54 to i64
  %56 = getelementptr inbounds [7 x [64 x i32]], ptr %53, i64 0, i64 %55
  %57 = load i32, ptr %8, align 4, !tbaa !32
  %58 = sext i32 %57 to i64
  %59 = getelementptr inbounds [64 x i32], ptr %56, i64 0, i64 %58
  store i32 %51, ptr %59, align 4, !tbaa !32
  br label %70

60:                                               ; preds = %36
  %61 = load i32, ptr %9, align 4, !tbaa !32
  %62 = load ptr, ptr %4, align 8, !tbaa !29
  %63 = getelementptr inbounds nuw %struct.TM2Context, ptr %62, i32 0, i32 10
  %64 = load i32, ptr %5, align 4, !tbaa !32
  %65 = sext i32 %64 to i64
  %66 = getelementptr inbounds [7 x [64 x i32]], ptr %63, i64 0, i64 %65
  %67 = load i32, ptr %8, align 4, !tbaa !32
  %68 = sext i32 %67 to i64
  %69 = getelementptr inbounds [64 x i32], ptr %66, i64 0, i64 %68
  store i32 %61, ptr %69, align 4, !tbaa !32
  br label %70

70:                                               ; preds = %60, %47
  br label %71

71:                                               ; preds = %70
  %72 = load i32, ptr %8, align 4, !tbaa !32
  %73 = add nsw i32 %72, 1
  store i32 %73, ptr %8, align 4, !tbaa !32
  br label %32, !llvm.loop !100

74:                                               ; preds = %32
  br label %75

75:                                               ; preds = %87, %74
  %76 = load i32, ptr %8, align 4, !tbaa !32
  %77 = icmp slt i32 %76, 64
  br i1 %77, label %78, label %90

78:                                               ; preds = %75
  %79 = load ptr, ptr %4, align 8, !tbaa !29
  %80 = getelementptr inbounds nuw %struct.TM2Context, ptr %79, i32 0, i32 10
  %81 = load i32, ptr %5, align 4, !tbaa !32
  %82 = sext i32 %81 to i64
  %83 = getelementptr inbounds [7 x [64 x i32]], ptr %80, i64 0, i64 %82
  %84 = load i32, ptr %8, align 4, !tbaa !32
  %85 = sext i32 %84 to i64
  %86 = getelementptr inbounds [64 x i32], ptr %83, i64 0, i64 %85
  store i32 0, ptr %86, align 4, !tbaa !32
  br label %87

87:                                               ; preds = %78
  %88 = load i32, ptr %8, align 4, !tbaa !32
  %89 = add nsw i32 %88, 1
  store i32 %89, ptr %8, align 4, !tbaa !32
  br label %75, !llvm.loop !101

90:                                               ; preds = %75
  store i32 0, ptr %3, align 4
  store i32 1, ptr %10, align 4
  br label %91

91:                                               ; preds = %90, %25
  call void @llvm.lifetime.end.p0(i64 4, ptr %9) #10
  call void @llvm.lifetime.end.p0(i64 4, ptr %8) #10
  call void @llvm.lifetime.end.p0(i64 4, ptr %7) #10
  call void @llvm.lifetime.end.p0(i64 4, ptr %6) #10
  %92 = load i32, ptr %3, align 4
  ret i32 %92
}