; Function Attrs: nounwind uwtable
define internal fastcc range(i32 -1094995529, 1) i32 @tm2_read_deltas(ptr noundef captures(none) %0, i32 noundef %1) unnamed_addr #1 {
  %3 = getelementptr inbounds nuw i8, ptr %0, i64 16
  %4 = getelementptr inbounds nuw i8, ptr %0, i64 32
  %5 = load i32, ptr %4, align 8, !tbaa !61
  %6 = getelementptr inbounds nuw i8, ptr %0, i64 40
  %7 = load i32, ptr %6, align 8, !tbaa !59
  %8 = load ptr, ptr %3, align 8, !tbaa !57
  %9 = lshr i32 %5, 3
  %10 = zext nneg i32 %9 to i64
  %11 = getelementptr inbounds nuw i8, ptr %8, i64 %10
  %12 = load i32, ptr %11, align 1, !tbaa !55
  %13 = tail call i32 @llvm.bswap.i32(i32 %12)
  %14 = and i32 %5, 7
  %15 = shl i32 %13, %14
  %16 = lshr i32 %15, 23
  %17 = add i32 %5, 9
  %18 = tail call i32 @llvm.umin.i32(i32 %7, i32 %17)
  store i32 %18, ptr %4, align 8, !tbaa !61
  %19 = lshr i32 %18, 3
  %20 = zext nneg i32 %19 to i64
  %21 = getelementptr inbounds nuw i8, ptr %8, i64 %20
  %22 = load i32, ptr %21, align 1, !tbaa !55
  %23 = tail call i32 @llvm.bswap.i32(i32 %22)
  %24 = and i32 %18, 7
  %25 = shl i32 %23, %24
  %26 = lshr i32 %25, 27
  %27 = add i32 %18, 5
  %28 = tail call i32 @llvm.umin.i32(i32 %7, i32 %27)
  store i32 %28, ptr %4, align 8, !tbaa !61
  %29 = add nsw i32 %16, -65
  %or.cond = icmp ult i32 %29, -64
  %30 = icmp ult i32 %25, 134217728
  %or.cond3 = select i1 %or.cond, i1 true, i1 %30
  br i1 %or.cond3, label %51, label %.preheader35

.preheader35:                                     ; preds = %2
  %.not39 = icmp ult i32 %15, 8388608
  br i1 %.not39, label %.lr.ph38, label %.lr.ph

.lr.ph:                                           ; preds = %.preheader35
  %31 = icmp ult i32 %25, -805306368
  %32 = add nsw i32 %26, -16
  %33 = sub nuw nsw i32 48, %26
  %34 = sub nuw nsw i32 32, %26
  %35 = add nsw i32 %26, -1
  %36 = shl nuw nsw i32 1, %35
  %.neg = shl nsw i32 -1, %26
  %37 = getelementptr inbounds nuw i8, ptr %0, i64 200
  %38 = sext i32 %1 to i64
  %wide.trip.count46 = zext nneg i32 %16 to i64
  br i1 %31, label %get_bits_long.exit.us, label %get_bits_long.exit

get_bits_long.exit.us:                            ; preds = %.lr.ph, %get_bits_long.exit.us
  %indvars.iv43 = phi i64 [ %indvars.iv.next44, %get_bits_long.exit.us ], [ 0, %.lr.ph ]
  %39 = load i32, ptr %4, align 8, !tbaa !61
  %40 = load i32, ptr %6, align 8, !tbaa !59
  %41 = lshr i32 %39, 3
  %42 = zext nneg i32 %41 to i64
  %43 = getelementptr inbounds nuw i8, ptr %8, i64 %42
  %44 = load i32, ptr %43, align 1, !tbaa !55
  %45 = tail call i32 @llvm.bswap.i32(i32 %44)
  %46 = and i32 %39, 7
  %47 = shl i32 %45, %46
  %48 = add i32 %39, %26
  %49 = tail call i32 @llvm.umin.i32(i32 %40, i32 %48)
  store i32 %49, ptr %4, align 8, !tbaa !61
  %.sink = ashr i32 %47, %34
  %50 = getelementptr inbounds [7 x [64 x i32]], ptr %37, i64 0, i64 %38, i64 %indvars.iv43
  store i32 %.sink, ptr %50, align 4, !tbaa !56
  %indvars.iv.next44 = add nuw nsw i64 %indvars.iv43, 1
  %exitcond47.not = icmp eq i64 %indvars.iv.next44, %wide.trip.count46
  br i1 %exitcond47.not, label %.preheader, label %get_bits_long.exit.us, !llvm.loop !114

51:                                               ; preds = %2
  %52 = load ptr, ptr %0, align 8, !tbaa !29
  tail call void (ptr, i32, ptr, ...) @av_log(ptr noundef %52, i32 noundef 16, ptr noundef nonnull @.str.14, i32 noundef %16, i32 noundef %26) #8
  br label %.loopexit

.preheader:                                       ; preds = %get_bits_long.exit, %get_bits_long.exit.us
  %53 = icmp ult i32 %15, 536870912
  br i1 %53, label %.lr.ph38, label %.loopexit

.lr.ph38:                                         ; preds = %.preheader35, %.preheader
  %.032.lcssa52 = phi i32 [ %16, %.preheader ], [ 0, %.preheader35 ]
  %54 = sext i32 %1 to i64
  %55 = shl nsw i64 %54, 8
  %56 = shl nuw nsw i32 %.032.lcssa52, 2
  %57 = zext nneg i32 %56 to i64
  %58 = getelementptr i8, ptr %0, i64 %55
  %59 = getelementptr i8, ptr %58, i64 %57
  %scevgep = getelementptr i8, ptr %59, i64 200
  %60 = shl nuw nsw i32 %.032.lcssa52, 2
  %narrow = sub nuw nsw i32 256, %60
  %61 = zext nneg i32 %narrow to i64
  tail call void @llvm.memset.p0.i64(ptr align 4 %scevgep, i8 0, i64 %61, i1 false), !tbaa !56
  br label %.loopexit

get_bits_long.exit:                               ; preds = %.lr.ph, %get_bits_long.exit
  %indvars.iv = phi i64 [ %indvars.iv.next, %get_bits_long.exit ], [ 0, %.lr.ph ]
  %62 = load i32, ptr %4, align 8, !tbaa !61
  %63 = load i32, ptr %6, align 8, !tbaa !59
  %64 = lshr i32 %62, 3
  %65 = zext nneg i32 %64 to i64
  %66 = getelementptr inbounds nuw i8, ptr %8, i64 %65
  %67 = load i32, ptr %66, align 1, !tbaa !55
  %68 = tail call i32 @llvm.bswap.i32(i32 %67)
  %69 = and i32 %62, 7
  %70 = shl i32 %68, %69
  %71 = lshr i32 %70, 16
  %72 = add i32 %62, 16
  %73 = tail call i32 @llvm.umin.i32(i32 %63, i32 %72)
  store i32 %73, ptr %4, align 8, !tbaa !61
  %74 = shl nuw nsw i32 %71, %32
  %75 = lshr i32 %73, 3
  %76 = zext nneg i32 %75 to i64
  %77 = getelementptr inbounds nuw i8, ptr %8, i64 %76
  %78 = load i32, ptr %77, align 1, !tbaa !55
  %79 = tail call i32 @llvm.bswap.i32(i32 %78)
  %80 = and i32 %73, 7
  %81 = shl i32 %79, %80
  %82 = lshr i32 %81, %33
  %83 = add i32 %73, %32
  %84 = tail call i32 @llvm.umin.i32(i32 %63, i32 %83)
  store i32 %84, ptr %4, align 8, !tbaa !61
  %85 = or i32 %82, %74
  %86 = and i32 %74, %36
  %.not = icmp eq i32 %86, 0
  %87 = select i1 %.not, i32 0, i32 %.neg
  %.sink55 = add nsw i32 %85, %87
  %88 = getelementptr inbounds [7 x [64 x i32]], ptr %37, i64 0, i64 %38, i64 %indvars.iv
  store i32 %.sink55, ptr %88, align 4, !tbaa !56
  %indvars.iv.next = add nuw nsw i64 %indvars.iv, 1
  %exitcond.not = icmp eq i64 %indvars.iv.next, %wide.trip.count46
  br i1 %exitcond.not, label %.preheader, label %get_bits_long.exit, !llvm.loop !114

.loopexit:                                        ; preds = %.lr.ph38, %.preheader, %51
  %.0 = phi i32 [ -1094995529, %51 ], [ 0, %.preheader ], [ 0, %.lr.ph38 ]
  ret i32 %.0
}